target datalayout = "e-m:e-p270:32:32-p271:32:32-p272:64:64-i64:64-i128:128-f80:128-n8:16:32:64-S128"
target triple = "x86_64-unknown-linux-gnu"

%class.b2EdgeShape = type <{ %class.b2Shape, %struct.b2Vec2, %struct.b2Vec2, %struct.b2Vec2, %struct.b2Vec2, i8, [7 x i8] }>
%class.b2Shape = type { ptr, i32, float }
%struct.b2Vec2 = type { float, float }

; Function Attrs: mustprogress nounwind uwtable
define linkonce_odr hidden noundef nonnull align 8 dereferenceable(16) ptr @_ZN7b2ShapeaSERKS_(ptr noundef nonnull align 8 dereferenceable(16) %this, ptr noundef nonnull align 8 dereferenceable(16) %0) #0 comdat align 2 {
entry:
  %this.addr = alloca ptr, align 8
  %.addr = alloca ptr, align 8
  store ptr %this, ptr %this.addr, align 8
  store ptr %0, ptr %.addr, align 8
  %this1 = load ptr, ptr %this.addr, align 8
  %m_type = getelementptr inbounds %class.b2Shape, ptr %this1, i32 0, i32 1
  %1 = load ptr, ptr %.addr, align 8
  %m_type2 = getelementptr inbounds %class.b2Shape, ptr %1, i32 0, i32 1
  call void @llvm.memcpy.p0.p0.i64(ptr align 8 %m_type, ptr align 8 %m_type2, i64 8, i1 false)
  ret ptr %this1
}

; Function Attrs: mustprogress nounwind uwtable
define linkonce_odr hidden void @_ZN7b2ShapeC2Ev(ptr noundef nonnull align 8 dereferenceable(16) %this) unnamed_addr #0 comdat align 2 {
entry:
  %this.addr = alloca ptr, align 8
  store ptr %this, ptr %this.addr, align 8
  %this1 = load ptr, ptr %this.addr, align 8
  store ptr getelementptr inbounds ({ [10 x ptr] }, ptr @_ZTV7b2Shape, i32 0, i32 0, i32 2), ptr %this1, align 8
  ret void
}

; Function Attrs: mustprogress nounwind uwtable
define linkonce_odr hidden noundef nonnull align 8 dereferenceable(49) ptr @_ZN11b2EdgeShapeaSERKS_(ptr noundef nonnull align 8 dereferenceable(49) %this, ptr noundef nonnull align 8 dereferenceable(49) %0) #0 comdat align 2 {
entry:
  %this.addr = alloca ptr, align 8
  %.addr = alloca ptr, align 8
  store ptr %this, ptr %this.addr, align 8
  store ptr %0, ptr %.addr, align 8
  %this1 = load ptr, ptr %this.addr, align 8
  %1 = load ptr, ptr %.addr, align 8
  %call = call noundef nonnull align 8 dereferenceable(16) ptr @_ZN7b2ShapeaSERKS_(ptr noundef nonnull align 8 dereferenceable(16) %this1, ptr noundef nonnull align 8 dereferenceable(16) %1) #9
  %m_vertex1 = getelementptr inbounds %class.b2EdgeShape, ptr %this1, i32 0, i32 1
  %2 = load ptr, ptr %.addr, align 8
  %m_vertex12 = getelementptr inbounds %class.b2EdgeShape, ptr %2, i32 0, i32 1
  call void @llvm.memcpy.p0.p0.i64(ptr align 8 %m_vertex1, ptr align 8 %m_vertex12, i64 33, i1 false)
  ret ptr %this1
}

; Function Attrs: mustprogress nounwind uwtable
define linkonce_odr hidden void @_ZN11b2EdgeShapeC2Ev(ptr noundef nonnull align 8 dereferenceable(49) %this) unnamed_addr #0 comdat align 2 {
entry:
  %this.addr = alloca ptr, align 8
  store ptr %this, ptr %this.addr, align 8
  %this1 = load ptr, ptr %this.addr, align 8
  call void @_ZN7b2ShapeC2Ev(ptr noundef nonnull align 8 dereferenceable(16) %this1) #9
  store ptr getelementptr inbounds ({ [10 x ptr] }, ptr @_ZTV11b2EdgeShape, i32 0, i32 0, i32 2), ptr %this1, align 8
  %m_type = getelementptr inbounds %class.b2Shape, ptr %this1, i32 0, i32 1
  store i32 1, ptr %m_type, align 8
  %m_radius = getelementptr inbounds %class.b2Shape, ptr %this1, i32 0, i32 2
  store float 0x3F847AE140000000, ptr %m_radius, align 4
  %m_vertex02 = getelementptr inbounds %class.b2EdgeShape, ptr %this1, i32 0, i32 3
  %x = getelementptr inbounds %struct.b2Vec2, ptr %m_vertex02, i32 0, i32 0
  store float 0.000000e+00, ptr %x, align 8
  %m_vertex03 = getelementptr inbounds %class.b2EdgeShape, ptr %this1, i32 0, i32 3
  %y = getelementptr inbounds %struct.b2Vec2, ptr %m_vertex03, i32 0, i32 1
  store float 0.000000e+00, ptr %y, align 4
  %m_vertex34 = getelementptr inbounds %class.b2EdgeShape, ptr %this1, i32 0, i32 4
  %x5 = getelementptr inbounds %struct.b2Vec2, ptr %m_vertex34, i32 0, i32 0
  store float 0.000000e+00, ptr %x5, align 8
  %m_vertex36 = getelementptr inbounds %class.b2EdgeShape, ptr %this1, i32 0, i32 4
  %y7 = getelementptr inbounds %struct.b2Vec2, ptr %m_vertex36, i32 0, i32 1
  store float 0.000000e+00, ptr %y7, align 4
  %m_oneSided = getelementptr inbounds %class.b2EdgeShape, ptr %this1, i32 0, i32 5
  store i8 0, ptr %m_oneSided, align 8
  ret void
}

; Function Attrs: mustprogress uwtable
define noundef ptr @_ZNK11b2EdgeShape5CloneEP16b2BlockAllocator(ptr noundef nonnull align 8 dereferenceable(49) %this, ptr noundef %allocator) unnamed_addr #2 align 2 {
entry:
  %this.addr = alloca ptr, align 8
  %allocator.addr = alloca ptr, align 8
  %mem = alloca ptr, align 8
  %clone = alloca ptr, align 8
  store ptr %this, ptr %this.addr, align 8
  store ptr %allocator, ptr %allocator.addr, align 8
  %this1 = load ptr, ptr %this.addr, align 8
  %0 = load ptr, ptr %allocator.addr, align 8
  %call = call noundef ptr @_ZN16b2BlockAllocator8AllocateEi(ptr noundef nonnull align 8 dereferenceable(128) %0, i32 noundef 56)
  store ptr %call, ptr %mem, align 8
  %1 = load ptr, ptr %mem, align 8
  call void @_ZN11b2EdgeShapeC2Ev(ptr noundef nonnull align 8 dereferenceable(49) %1)
  store ptr %1, ptr %clone, align 8
  %2 = load ptr, ptr %clone, align 8
  %call2 = call noundef nonnull align 8 dereferenceable(49) ptr @_ZN11b2EdgeShapeaSERKS_(ptr noundef nonnull align 8 dereferenceable(49) %2, ptr noundef nonnull align 8 dereferenceable(49) %this1) #9
  %3 = load ptr, ptr %clone, align 8
  ret ptr %3
}