; Function Attrs: mustprogress uwtable
define noundef ptr @_ZNK11b2EdgeShape5CloneEP16b2BlockAllocator(ptr nocapture noundef nonnull readonly align 8 dereferenceable(49) %this, ptr noundef nonnull %allocator) unnamed_addr #2 align 2 {
entry:
  %call = tail call noundef ptr @_ZN16b2BlockAllocator8AllocateEi(ptr noundef nonnull align 8 dereferenceable(128) %allocator, i32 noundef 56)
  store ptr getelementptr inbounds ({ [10 x ptr] }, ptr @_ZTV11b2EdgeShape, i64 0, i32 0, i64 2), ptr %call, align 8
  %m_type.i = getelementptr inbounds i8, ptr %call, i64 8
  store i32 1, ptr %m_type.i, align 8
  %m_radius.i = getelementptr inbounds i8, ptr %call, i64 12
  store float 0x3F847AE140000000, ptr %m_radius.i, align 4
  %m_vertex02.i = getelementptr inbounds i8, ptr %call, i64 32
  tail call void @llvm.memset.p0.i64(ptr noundef nonnull align 8 dereferenceable(17) %m_vertex02.i, i8 0, i64 17, i1 false)
  %m_type2.i.i = getelementptr inbounds i8, ptr %this, i64 8
  %0 = load i64, ptr %m_type2.i.i, align 8
  store i64 %0, ptr %m_type.i, align 8
  %m_vertex1.i = getelementptr inbounds i8, ptr %call, i64 16
  %m_vertex12.i = getelementptr inbounds i8, ptr %this, i64 16
  tail call void @llvm.memcpy.p0.p0.i64(ptr noundef nonnull align 8 dereferenceable(33) %m_vertex1.i, ptr noundef nonnull align 8 dereferenceable(33) %m_vertex12.i, i64 33, i1 false)
  ret ptr %call
}